target datalayout = "e-m:e-p270:32:32-p271:32:32-p272:64:64-i64:64-i128:128-f80:128-n8:16:32:64-S128"
target triple = "x86_64-unknown-linux-gnu"

%"class.std::shared_ptr" = type { %"class.std::__shared_ptr" }
%"class.std::__shared_ptr" = type { ptr, %"class.std::__shared_count" }
%"class.std::__shared_count" = type { ptr }
%"class.std::shared_ptr.6" = type { %"class.std::__shared_ptr.7" }
%"class.std::__shared_ptr.7" = type { ptr, %"class.std::__shared_count" }
%"class.std::_Sp_counted_base" = type { ptr, i32, i32 }
%"class.std::_Sp_counted_ptr.21" = type { %"class.std::_Sp_counted_base", ptr }

@_ZN7openvdb5v11_04math9TransformC1ERKSt10shared_ptrINS1_7MapBaseEE = unnamed_addr alias void (ptr, ptr), ptr @_ZN7openvdb5v11_04math9TransformC2ERKSt10shared_ptrINS1_7MapBaseEE

; Function Attrs: mustprogress nounwind uwtable
define linkonce_odr void @_ZN7openvdb5v11_04math7MapBaseD2Ev(ptr noundef nonnull align 8 dereferenceable(8) %this) unnamed_addr #5 comdat align 2 {
entry:
  %this.addr = alloca ptr, align 8
  store ptr %this, ptr %this.addr, align 8
  ret void
}

; Function Attrs: mustprogress nounwind uwtable
define linkonce_odr void @_ZNSt16_Sp_counted_baseILN9__gnu_cxx12_Lock_policyE2EEC2Ev(ptr noundef nonnull align 8 dereferenceable(16) %this) unnamed_addr #5 comdat align 2 {
entry:
  %this.addr = alloca ptr, align 8
  store ptr %this, ptr %this.addr, align 8
  %this1 = load ptr, ptr %this.addr, align 8
  store ptr getelementptr inbounds ({ [7 x ptr] }, ptr @_ZTVSt16_Sp_counted_baseILN9__gnu_cxx12_Lock_policyE2EE, i32 0, i32 0, i32 2), ptr %this1, align 8
  %_M_use_count = getelementptr inbounds %"class.std::_Sp_counted_base", ptr %this1, i32 0, i32 1
  store i32 1, ptr %_M_use_count, align 8
  %_M_weak_count = getelementptr inbounds %"class.std::_Sp_counted_base", ptr %this1, i32 0, i32 2
  store i32 1, ptr %_M_weak_count, align 4
  ret void
}

; Function Attrs: mustprogress nounwind uwtable
define linkonce_odr void @_ZN7openvdb5v11_04math9AffineMapD2Ev(ptr noundef nonnull align 8 dereferenceable(376) %this) unnamed_addr #5 comdat align 2 {
entry:
  %this.addr = alloca ptr, align 8
  store ptr %this, ptr %this.addr, align 8
  %this1 = load ptr, ptr %this.addr, align 8
  call void @_ZN7openvdb5v11_04math7MapBaseD2Ev(ptr noundef nonnull align 8 dereferenceable(8) %this1) #3
  ret void
}

; Function Attrs: mustprogress nounwind uwtable
define linkonce_odr void @_ZNSt15_Sp_counted_ptrIPN7openvdb5v11_04math9AffineMapELN9__gnu_cxx12_Lock_policyE2EEC2ES4_(ptr noundef nonnull align 8 dereferenceable(24) %this, ptr noundef %__p) unnamed_addr #5 comdat align 2 {
entry:
  %this.addr = alloca ptr, align 8
  %__p.addr = alloca ptr, align 8
  store ptr %this, ptr %this.addr, align 8
  store ptr %__p, ptr %__p.addr, align 8
  %this1 = load ptr, ptr %this.addr, align 8
  call void @_ZNSt16_Sp_counted_baseILN9__gnu_cxx12_Lock_policyE2EEC2Ev(ptr noundef nonnull align 8 dereferenceable(16) %this1) #3
  store ptr getelementptr inbounds ({ [7 x ptr] }, ptr @_ZTVSt15_Sp_counted_ptrIPN7openvdb5v11_04math9AffineMapELN9__gnu_cxx12_Lock_policyE2EE, i32 0, i32 0, i32 2), ptr %this1, align 8
  %_M_ptr = getelementptr inbounds %"class.std::_Sp_counted_ptr.21", ptr %this1, i32 0, i32 1
  %0 = load ptr, ptr %__p.addr, align 8
  store ptr %0, ptr %_M_ptr, align 8
  ret void
}

; Function Attrs: mustprogress uwtable
define linkonce_odr void @_ZNSt14__shared_countILN9__gnu_cxx12_Lock_policyE2EEC2IPN7openvdb5v11_04math9AffineMapEEET_(ptr noundef nonnull align 8 dereferenceable(8) %this, ptr noundef %__p) unnamed_addr #4 comdat align 2 personality ptr @__gxx_personality_v0 {
entry:
  %this.addr = alloca ptr, align 8
  %__p.addr = alloca ptr, align 8
  %exn.slot = alloca ptr, align 8
  %ehselector.slot = alloca i32, align 4
  store ptr %this, ptr %this.addr, align 8
  store ptr %__p, ptr %__p.addr, align 8
  %this1 = load ptr, ptr %this.addr, align 8
  %_M_pi = getelementptr inbounds %"class.std::__shared_count", ptr %this1, i32 0, i32 0
  store ptr null, ptr %_M_pi, align 8
  %call = invoke noalias noundef nonnull ptr @_Znwm(i64 noundef 24) #15
          to label %invoke.cont unwind label %lpad

invoke.cont:                                      ; preds = %entry
  %0 = load ptr, ptr %__p.addr, align 8
  call void @_ZNSt15_Sp_counted_ptrIPN7openvdb5v11_04math9AffineMapELN9__gnu_cxx12_Lock_policyE2EEC2ES4_(ptr noundef nonnull align 8 dereferenceable(24) %call, ptr noundef %0) #3
  %_M_pi2 = getelementptr inbounds %"class.std::__shared_count", ptr %this1, i32 0, i32 0
  store ptr %call, ptr %_M_pi2, align 8
  br label %try.cont

lpad:                                             ; preds = %entry
  %1 = landingpad { ptr, i32 }
          catch ptr null
  %2 = extractvalue { ptr, i32 } %1, 0
  store ptr %2, ptr %exn.slot, align 8
  %3 = extractvalue { ptr, i32 } %1, 1
  store i32 %3, ptr %ehselector.slot, align 4
  br label %catch

catch:                                            ; preds = %lpad
  %exn = load ptr, ptr %exn.slot, align 8
  %4 = call ptr @__cxa_begin_catch(ptr %exn) #3
  %5 = load ptr, ptr %__p.addr, align 8
  %isnull = icmp eq ptr %5, null
  br i1 %isnull, label %delete.end, label %delete.notnull

delete.notnull:                                   ; preds = %catch
  call void @_ZN7openvdb5v11_04math9AffineMapD2Ev(ptr noundef nonnull align 8 dereferenceable(376) %5) #3
  call void @_ZdlPv(ptr noundef %5) #16
  br label %delete.end

delete.end:                                       ; preds = %delete.notnull, %catch
  invoke void @__cxa_rethrow() #17
          to label %unreachable unwind label %lpad3

lpad3:                                            ; preds = %delete.end
  %6 = landingpad { ptr, i32 }
          cleanup
  %7 = extractvalue { ptr, i32 } %6, 0
  store ptr %7, ptr %exn.slot, align 8
  %8 = extractvalue { ptr, i32 } %6, 1
  store i32 %8, ptr %ehselector.slot, align 4
  invoke void @__cxa_end_catch()
          to label %invoke.cont4 unwind label %terminate.lpad

invoke.cont4:                                     ; preds = %lpad3
  br label %eh.resume

try.cont:                                         ; preds = %invoke.cont
  ret void

eh.resume:                                        ; preds = %invoke.cont4
  %exn5 = load ptr, ptr %exn.slot, align 8
  %sel = load i32, ptr %ehselector.slot, align 4
  %lpad.val = insertvalue { ptr, i32 } poison, ptr %exn5, 0
  %lpad.val6 = insertvalue { ptr, i32 } %lpad.val, i32 %sel, 1
  resume { ptr, i32 } %lpad.val6

terminate.lpad:                                   ; preds = %lpad3
  %9 = landingpad { ptr, i32 }
          catch ptr null
  %10 = extractvalue { ptr, i32 } %9, 0
  call void @__clang_call_terminate(ptr %10) #18
  unreachable

unreachable:                                      ; preds = %delete.end
  unreachable
}

; Function Attrs: mustprogress nounwind uwtable
define linkonce_odr void @_ZNSt12__shared_ptrIN7openvdb5v11_04math9TransformELN9__gnu_cxx12_Lock_policyE2EE31_M_enable_shared_from_this_withIS3_S3_EENSt9enable_ifIXntsr15__has_esft_baseIT0_EE5valueEvE4typeEPT_(ptr noundef nonnull align 8 dereferenceable(16) %this, ptr noundef %0) #5 comdat align 2 {
entry:
  %this.addr = alloca ptr, align 8
  %.addr = alloca ptr, align 8
  store ptr %this, ptr %this.addr, align 8
  store ptr %0, ptr %.addr, align 8
  ret void
}

; Function Attrs: mustprogress uwtable
define linkonce_odr void @_ZNSt14__shared_countILN9__gnu_cxx12_Lock_policyE2EEC2IPN7openvdb5v11_04math9TransformEEET_St17integral_constantIbLb0EE(ptr noundef nonnull align 8 dereferenceable(8) %this, ptr noundef %__p) unnamed_addr #4 comdat align 2 {
entry:
  %this.addr = alloca ptr, align 8
  %__p.addr = alloca ptr, align 8
  store ptr %this, ptr %this.addr, align 8
  store ptr %__p, ptr %__p.addr, align 8
  %this1 = load ptr, ptr %this.addr, align 8
  %0 = load ptr, ptr %__p.addr, align 8
  call void @_ZNSt14__shared_countILN9__gnu_cxx12_Lock_policyE2EEC2IPN7openvdb5v11_04math9TransformEEET_(ptr noundef nonnull align 8 dereferenceable(8) %this1, ptr noundef %0)
  ret void
}

; Function Attrs: mustprogress nounwind uwtable
define linkonce_odr void @_ZNSt12__shared_ptrIN7openvdb5v11_04math7MapBaseELN9__gnu_cxx12_Lock_policyE2EE31_M_enable_shared_from_this_withINS2_9AffineMapES8_EENSt9enable_ifIXntsr15__has_esft_baseIT0_EE5valueEvE4typeEPT_(ptr noundef nonnull align 8 dereferenceable(16) %this, ptr noundef %0) #5 comdat align 2 {
entry:
  %this.addr = alloca ptr, align 8
  %.addr = alloca ptr, align 8
  store ptr %this, ptr %this.addr, align 8
  store ptr %0, ptr %.addr, align 8
  ret void
}

; Function Attrs: mustprogress uwtable
define linkonce_odr void @_ZNSt14__shared_countILN9__gnu_cxx12_Lock_policyE2EEC2IPN7openvdb5v11_04math9AffineMapEEET_St17integral_constantIbLb0EE(ptr noundef nonnull align 8 dereferenceable(8) %this, ptr noundef %__p) unnamed_addr #4 comdat align 2 {
entry:
  %this.addr = alloca ptr, align 8
  %__p.addr = alloca ptr, align 8
  store ptr %this, ptr %this.addr, align 8
  store ptr %__p, ptr %__p.addr, align 8
  %this1 = load ptr, ptr %this.addr, align 8
  %0 = load ptr, ptr %__p.addr, align 8
  call void @_ZNSt14__shared_countILN9__gnu_cxx12_Lock_policyE2EEC2IPN7openvdb5v11_04math9AffineMapEEET_(ptr noundef nonnull align 8 dereferenceable(8) %this1, ptr noundef %0)
  ret void
}

; Function Attrs: mustprogress uwtable
define linkonce_odr void @_ZNSt12__shared_ptrIN7openvdb5v11_04math9TransformELN9__gnu_cxx12_Lock_policyE2EEC2IS3_vEEPT_(ptr noundef nonnull align 8 dereferenceable(16) %this, ptr noundef %__p) unnamed_addr #4 comdat align 2 {
entry:
  %this.addr = alloca ptr, align 8
  %__p.addr = alloca ptr, align 8
  store ptr %this, ptr %this.addr, align 8
  store ptr %__p, ptr %__p.addr, align 8
  %this1 = load ptr, ptr %this.addr, align 8
  %_M_ptr = getelementptr inbounds %"class.std::__shared_ptr.7", ptr %this1, i32 0, i32 0
  %0 = load ptr, ptr %__p.addr, align 8
  store ptr %0, ptr %_M_ptr, align 8
  %_M_refcount = getelementptr inbounds %"class.std::__shared_ptr.7", ptr %this1, i32 0, i32 1
  %1 = load ptr, ptr %__p.addr, align 8
  call void @_ZNSt14__shared_countILN9__gnu_cxx12_Lock_policyE2EEC2IPN7openvdb5v11_04math9TransformEEET_St17integral_constantIbLb0EE(ptr noundef nonnull align 8 dereferenceable(8) %_M_refcount, ptr noundef %1)
  %2 = load ptr, ptr %__p.addr, align 8
  call void @_ZNSt12__shared_ptrIN7openvdb5v11_04math9TransformELN9__gnu_cxx12_Lock_policyE2EE31_M_enable_shared_from_this_withIS3_S3_EENSt9enable_ifIXntsr15__has_esft_baseIT0_EE5valueEvE4typeEPT_(ptr noundef nonnull align 8 dereferenceable(16) %this1, ptr noundef %2) #3
  ret void
}

; Function Attrs: mustprogress uwtable
define linkonce_odr void @_ZNSt12__shared_ptrIN7openvdb5v11_04math7MapBaseELN9__gnu_cxx12_Lock_policyE2EEC2INS2_9AffineMapEvEEPT_(ptr noundef nonnull align 8 dereferenceable(16) %this, ptr noundef %__p) unnamed_addr #4 comdat align 2 {
entry:
  %this.addr = alloca ptr, align 8
  %__p.addr = alloca ptr, align 8
  store ptr %this, ptr %this.addr, align 8
  store ptr %__p, ptr %__p.addr, align 8
  %this1 = load ptr, ptr %this.addr, align 8
  %_M_ptr = getelementptr inbounds %"class.std::__shared_ptr", ptr %this1, i32 0, i32 0
  %0 = load ptr, ptr %__p.addr, align 8
  store ptr %0, ptr %_M_ptr, align 8
  %_M_refcount = getelementptr inbounds %"class.std::__shared_ptr", ptr %this1, i32 0, i32 1
  %1 = load ptr, ptr %__p.addr, align 8
  call void @_ZNSt14__shared_countILN9__gnu_cxx12_Lock_policyE2EEC2IPN7openvdb5v11_04math9AffineMapEEET_St17integral_constantIbLb0EE(ptr noundef nonnull align 8 dereferenceable(8) %_M_refcount, ptr noundef %1)
  %2 = load ptr, ptr %__p.addr, align 8
  call void @_ZNSt12__shared_ptrIN7openvdb5v11_04math7MapBaseELN9__gnu_cxx12_Lock_policyE2EE31_M_enable_shared_from_this_withINS2_9AffineMapES8_EENSt9enable_ifIXntsr15__has_esft_baseIT0_EE5valueEvE4typeEPT_(ptr noundef nonnull align 8 dereferenceable(16) %this1, ptr noundef %2) #3
  ret void
}

; Function Attrs: mustprogress uwtable
define linkonce_odr void @_ZNSt10shared_ptrIN7openvdb5v11_04math9TransformEEC2IS3_vEEPT_(ptr noundef nonnull align 8 dereferenceable(16) %this, ptr noundef %__p) unnamed_addr #4 comdat align 2 {
entry:
  %this.addr = alloca ptr, align 8
  %__p.addr = alloca ptr, align 8
  store ptr %this, ptr %this.addr, align 8
  store ptr %__p, ptr %__p.addr, align 8
  %this1 = load ptr, ptr %this.addr, align 8
  %0 = load ptr, ptr %__p.addr, align 8
  call void @_ZNSt12__shared_ptrIN7openvdb5v11_04math9TransformELN9__gnu_cxx12_Lock_policyE2EEC2IS3_vEEPT_(ptr noundef nonnull align 8 dereferenceable(16) %this1, ptr noundef %0)
  ret void
}

; Function Attrs: mustprogress uwtable
define linkonce_odr void @_ZNSt10shared_ptrIN7openvdb5v11_04math7MapBaseEEC2INS2_9AffineMapEvEEPT_(ptr noundef nonnull align 8 dereferenceable(16) %this, ptr noundef %__p) unnamed_addr #4 comdat align 2 {
entry:
  %this.addr = alloca ptr, align 8
  %__p.addr = alloca ptr, align 8
  store ptr %this, ptr %this.addr, align 8
  store ptr %__p, ptr %__p.addr, align 8
  %this1 = load ptr, ptr %this.addr, align 8
  %0 = load ptr, ptr %__p.addr, align 8
  call void @_ZNSt12__shared_ptrIN7openvdb5v11_04math7MapBaseELN9__gnu_cxx12_Lock_policyE2EEC2INS2_9AffineMapEvEEPT_(ptr noundef nonnull align 8 dereferenceable(16) %this1, ptr noundef %0)
  ret void
}

; Function Attrs: mustprogress uwtable
define void @_ZN7openvdb5v11_04math9Transform21createLinearTransformERKNS1_4Mat4IdEE(ptr noalias sret(%"class.std::shared_ptr.6") align 8 %agg.result, ptr noundef nonnull align 8 dereferenceable(128) %m) #4 align 2 personality ptr @__gxx_personality_v0 {
entry:
  %result.ptr = alloca ptr, align 8
  %m.addr = alloca ptr, align 8
  %ref.tmp = alloca %"class.std::shared_ptr", align 8
  %exn.slot = alloca ptr, align 8
  %ehselector.slot = alloca i32, align 4
  %cleanup.isactive = alloca i1, align 1
  store ptr %agg.result, ptr %result.ptr, align 8
  store ptr %m, ptr %m.addr, align 8
  %call = call noalias noundef nonnull ptr @_Znwm(i64 noundef 16) #15
  store i1 true, ptr %cleanup.isactive, align 1
  %call1 = invoke noalias noundef nonnull ptr @_Znwm(i64 noundef 376) #15
          to label %invoke.cont unwind label %lpad

invoke.cont:                                      ; preds = %entry
  %0 = load ptr, ptr %m.addr, align 8
  invoke void @_ZN7openvdb5v11_04math9AffineMapC2ERKNS1_4Mat4IdEE(ptr noundef nonnull align 8 dereferenceable(376) %call1, ptr noundef nonnull align 8 dereferenceable(128) %0)
          to label %invoke.cont3 unwind label %lpad2

invoke.cont3:                                     ; preds = %invoke.cont
  invoke void @_ZNSt10shared_ptrIN7openvdb5v11_04math7MapBaseEEC2INS2_9AffineMapEvEEPT_(ptr noundef nonnull align 8 dereferenceable(16) %ref.tmp, ptr noundef %call1)
          to label %invoke.cont4 unwind label %lpad

invoke.cont4:                                     ; preds = %invoke.cont3
  invoke void @_ZN7openvdb5v11_04math9TransformC1ERKSt10shared_ptrINS1_7MapBaseEE(ptr noundef nonnull align 8 dereferenceable(16) %call, ptr noundef nonnull align 8 dereferenceable(16) %ref.tmp)
          to label %invoke.cont6 unwind label %lpad5

invoke.cont6:                                     ; preds = %invoke.cont4
  store i1 false, ptr %cleanup.isactive, align 1
  invoke void @_ZNSt10shared_ptrIN7openvdb5v11_04math9TransformEEC2IS3_vEEPT_(ptr noundef nonnull align 8 dereferenceable(16) %agg.result, ptr noundef %call)
          to label %invoke.cont7 unwind label %lpad5

invoke.cont7:                                     ; preds = %invoke.cont6
  call void @_ZNSt10shared_ptrIN7openvdb5v11_04math7MapBaseEED2Ev(ptr noundef nonnull align 8 dereferenceable(16) %ref.tmp) #3
  ret void

lpad:                                             ; preds = %invoke.cont3, %entry
  %1 = landingpad { ptr, i32 }
          cleanup
  %2 = extractvalue { ptr, i32 } %1, 0
  store ptr %2, ptr %exn.slot, align 8
  %3 = extractvalue { ptr, i32 } %1, 1
  store i32 %3, ptr %ehselector.slot, align 4
  br label %ehcleanup

lpad2:                                            ; preds = %invoke.cont
  %4 = landingpad { ptr, i32 }
          cleanup
  %5 = extractvalue { ptr, i32 } %4, 0
  store ptr %5, ptr %exn.slot, align 8
  %6 = extractvalue { ptr, i32 } %4, 1
  store i32 %6, ptr %ehselector.slot, align 4
  call void @_ZdlPv(ptr noundef %call1) #16
  br label %ehcleanup

lpad5:                                            ; preds = %invoke.cont6, %invoke.cont4
  %7 = landingpad { ptr, i32 }
          cleanup
  %8 = extractvalue { ptr, i32 } %7, 0
  store ptr %8, ptr %exn.slot, align 8
  %9 = extractvalue { ptr, i32 } %7, 1
  store i32 %9, ptr %ehselector.slot, align 4
  call void @_ZNSt10shared_ptrIN7openvdb5v11_04math7MapBaseEED2Ev(ptr noundef nonnull align 8 dereferenceable(16) %ref.tmp) #3
  br label %ehcleanup

ehcleanup:                                        ; preds = %lpad5, %lpad2, %lpad
  %cleanup.is_active = load i1, ptr %cleanup.isactive, align 1
  br i1 %cleanup.is_active, label %cleanup.action, label %cleanup.done

cleanup.action:                                   ; preds = %ehcleanup
  call void @_ZdlPv(ptr noundef %call) #16
  br label %cleanup.done

cleanup.done:                                     ; preds = %cleanup.action, %ehcleanup
  br label %eh.resume

eh.resume:                                        ; preds = %cleanup.done
  %exn = load ptr, ptr %exn.slot, align 8
  %sel = load i32, ptr %ehselector.slot, align 4
  %lpad.val = insertvalue { ptr, i32 } poison, ptr %exn, 0
  %lpad.val8 = insertvalue { ptr, i32 } %lpad.val, i32 %sel, 1
  resume { ptr, i32 } %lpad.val8
}